; Function Attrs: mustprogress uwtable
define void @_ZNK5arrow10Decimal1288ToStringB5cxx11Ei(ptr noalias sret(%"class.std::__cxx11::basic_string") align 8 %agg.result, ptr nocapture noundef nonnull readonly align 8 dereferenceable(16) %this, i32 noundef %scale) local_unnamed_addr #0 align 2 personality ptr @__gxx_personality_v0 {
entry:
  %abs.i = alloca %"class.arrow::Decimal128", align 16
  %ref.tmp.i = alloca %"struct.std::array", align 16
  %ref.tmp10.i = alloca %"struct.std::array", align 8
  %ref.tmp = alloca %"class.std::allocator", align 1
  %0 = add i32 %scale, -39
  %1 = icmp ult i32 %0, -77
  br i1 %1, label %if.then, label %if.end

if.then:                                          ; preds = %entry
  call void @_ZNSaIcEC1Ev(ptr noundef nonnull align 1 dereferenceable(1) %ref.tmp) #18
  %call.i4 = invoke noundef ptr @_ZNSt7__cxx1112basic_stringIcSt11char_traitsIcESaIcEE13_M_local_dataEv(ptr noundef nonnull align 8 dereferenceable(32) %agg.result)
          to label %call.i.noexc unwind label %lpad

call.i.noexc:                                     ; preds = %if.then
  invoke void @_ZNSt7__cxx1112basic_stringIcSt11char_traitsIcESaIcEE12_Alloc_hiderC1EPcRKS3_(ptr noundef nonnull align 8 dereferenceable(8) %agg.result, ptr noundef %call.i4, ptr noundef nonnull align 1 dereferenceable(1) %ref.tmp)
          to label %.noexc unwind label %lpad

.noexc:                                           ; preds = %call.i.noexc
  invoke void @_ZNSt7__cxx1112basic_stringIcSt11char_traitsIcESaIcEE12_M_constructIPKcEEvT_S8_St20forward_iterator_tag(ptr noundef nonnull align 8 dereferenceable(32) %agg.result, ptr noundef nonnull @.str.1, ptr noundef nonnull getelementptr inbounds ([53 x i8], ptr @.str.1, i64 0, i64 52))
          to label %invoke.cont unwind label %lpad.i

lpad.i:                                           ; preds = %.noexc
  %2 = landingpad { ptr, i32 }
          cleanup
  call void @_ZNSaIcED2Ev(ptr noundef nonnull align 1 dereferenceable(1) %agg.result) #18
  br label %lpad.body

invoke.cont:                                      ; preds = %.noexc
  call void @_ZNSaIcED1Ev(ptr noundef nonnull align 1 dereferenceable(1) %ref.tmp) #18
  br label %return

lpad:                                             ; preds = %call.i.noexc, %if.then
  %3 = landingpad { ptr, i32 }
          cleanup
  br label %lpad.body

lpad.body:                                        ; preds = %lpad.i, %lpad
  %eh.lpad-body = phi { ptr, i32 } [ %3, %lpad ], [ %2, %lpad.i ]
  call void @_ZNSaIcED1Ev(ptr noundef nonnull align 1 dereferenceable(1) %ref.tmp) #18
  br label %common.resume

if.end:                                           ; preds = %entry
  call void @llvm.lifetime.start.p0(i64 16, ptr nonnull %abs.i)
  call void @llvm.lifetime.start.p0(i64 16, ptr nonnull %ref.tmp.i)
  call void @llvm.lifetime.start.p0(i64 16, ptr nonnull %ref.tmp10.i)
  tail call void @_ZNSt7__cxx1112basic_stringIcSt11char_traitsIcESaIcEEC1Ev(ptr noundef nonnull align 8 dereferenceable(32) %agg.result) #18
  %arrayidx.i.i.i.i = getelementptr inbounds i8, ptr %this, i64 8
  %4 = load i64, ptr %arrayidx.i.i.i.i, align 8, !noalias !25
  %cmp.i = icmp slt i64 %4, 0
  br i1 %cmp.i, label %if.then.i, label %if.else.i

if.then.i:                                        ; preds = %if.end
  invoke void @_ZNSt7__cxx1112basic_stringIcSt11char_traitsIcESaIcEE9push_backEc(ptr noundef nonnull align 8 dereferenceable(32) %agg.result, i8 noundef signext 45)
          to label %invoke.cont2.i unwind label %lpad.i5

invoke.cont2.i:                                   ; preds = %if.then.i
  call void @llvm.memcpy.p0.p0.i64(ptr noundef nonnull align 16 dereferenceable(16) %abs.i, ptr noundef nonnull align 8 dereferenceable(16) %this, i64 16, i1 false), !noalias !25
  %call4.i = invoke noundef nonnull align 8 dereferenceable(16) ptr @_ZN5arrow15BasicDecimal1286NegateEv(ptr noundef nonnull align 8 dereferenceable(16) %abs.i)
          to label %invoke.cont3.i unwind label %lpad.i5

invoke.cont3.i:                                   ; preds = %invoke.cont2.i
  %5 = load <2 x i64>, ptr %abs.i, align 16, !noalias !25
  store <2 x i64> %5, ptr %ref.tmp.i, align 16, !noalias !25
  br label %if.else.invoke.i

common.resume:                                    ; preds = %lpad.body, %lpad4, %lpad.i5
  %common.resume.op = phi { ptr, i32 } [ %6, %lpad.i5 ], [ %eh.lpad-body, %lpad.body ], [ %9, %lpad4 ]
  resume { ptr, i32 } %common.resume.op

lpad.i5:                                          ; preds = %if.else.invoke.i, %invoke.cont2.i, %if.then.i
  %6 = landingpad { ptr, i32 }
          cleanup
  call void @_ZNSt7__cxx1112basic_stringIcSt11char_traitsIcESaIcEED1Ev(ptr noundef nonnull align 8 dereferenceable(32) %agg.result) #18
  br label %common.resume

if.else.i:                                        ; preds = %if.end
  %7 = load i64, ptr %this, align 8, !noalias !25
  store i64 %7, ptr %ref.tmp10.i, align 8, !noalias !25
  %arrayinit.element15.i = getelementptr inbounds i8, ptr %ref.tmp10.i, i64 8
  store i64 %4, ptr %arrayinit.element15.i, align 8, !noalias !25
  br label %if.else.invoke.i

if.else.invoke.i:                                 ; preds = %if.else.i, %invoke.cont3.i
  %8 = phi ptr [ %ref.tmp10.i, %if.else.i ], [ %ref.tmp.i, %invoke.cont3.i ]
  invoke fastcc void @_ZN5arrowL31AppendLittleEndianArrayToStringILm2EEEvRKSt5arrayImXT_EEPNSt7__cxx1112basic_stringIcSt11char_traitsIcESaIcEEE(ptr noundef nonnull align 8 dereferenceable(16) %8, ptr noundef nonnull %agg.result)
          to label %_ZNK5arrow10Decimal12815ToIntegerStringB5cxx11Ev.exit unwind label %lpad.i5

_ZNK5arrow10Decimal12815ToIntegerStringB5cxx11Ev.exit: ; preds = %if.else.invoke.i
  call void @llvm.lifetime.end.p0(i64 16, ptr nonnull %abs.i)
  call void @llvm.lifetime.end.p0(i64 16, ptr nonnull %ref.tmp.i)
  call void @llvm.lifetime.end.p0(i64 16, ptr nonnull %ref.tmp10.i)
  invoke fastcc void @_ZN5arrowL28AdjustIntegerStringWithScaleEiPNSt7__cxx1112basic_stringIcSt11char_traitsIcESaIcEEE(i32 noundef %scale, ptr noundef nonnull %agg.result)
          to label %return unwind label %lpad4

lpad4:                                            ; preds = %_ZNK5arrow10Decimal12815ToIntegerStringB5cxx11Ev.exit
  %9 = landingpad { ptr, i32 }
          cleanup
  call void @_ZNSt7__cxx1112basic_stringIcSt11char_traitsIcESaIcEED1Ev(ptr noundef nonnull align 8 dereferenceable(32) %agg.result) #18
  br label %common.resume

return:                                           ; preds = %_ZNK5arrow10Decimal12815ToIntegerStringB5cxx11Ev.exit, %invoke.cont
  ret void
}